; Function Attrs: nounwind uwtable
define internal fastcc noalias nonnull ptr @_init_l_BitVec_reduceRotateRight___regBuiltin_BitVec_reduceRotateRight_declare__1____x40_Lean_Meta_Tactic_Simp_BuiltinSimprocs_BitVec___hyg_2868____closed__1() unnamed_addr #1 {
  %1 = load ptr, ptr @l___private_Lean_Meta_Tactic_Simp_BuiltinSimprocs_BitVec_0____regBuiltin_BitVec_reduceRotateRight_declare__189____x40_Lean_Meta_Tactic_Simp_BuiltinSimprocs_BitVec___hyg_2866____closed__6, align 8, !tbaa !5
  tail call void @lean_inc_heartbeat() #5
  %2 = tail call noalias ptr @mi_malloc_small(i64 noundef 16) #5
  %3 = icmp eq ptr %2, null
  br i1 %3, label %4, label %lean_alloc_ctor.exit

4:                                                ; preds = %0
  tail call void @lean_internal_panic_out_of_memory() #6
  unreachable

lean_alloc_ctor.exit:                             ; preds = %0
  %5 = getelementptr inbounds nuw i8, ptr %2, i64 4
  store i32 1, ptr %2, align 4, !tbaa !10
  store i32 16842768, ptr %5, align 4
  %6 = getelementptr inbounds nuw i8, ptr %2, i64 8
  store ptr %1, ptr %6, align 8, !tbaa !5
  ret ptr %2
}